; Function Attrs: mustprogress uwtable
define internal noundef zeroext i1 @_ZN12_GLOBAL__N_119VariableValueHelperERNSt7__cxx1112basic_stringIcSt11char_traitsIcESaIcEEEPKN4Json5ValueEP11cmJSONState(ptr noundef nonnull align 8 dereferenceable(32) %0, ptr noundef %1, ptr noundef %2) #3 {
  %4 = alloca ptr, align 8
  %5 = alloca ptr, align 8
  %.not = icmp eq ptr %1, null
  br i1 %.not, label %6, label %7

6:                                                ; preds = %3
  tail call void @_ZNSt7__cxx1112basic_stringIcSt11char_traitsIcESaIcEE5clearEv(ptr noundef nonnull align 8 dereferenceable(32) %0) #21
  br label %18

7:                                                ; preds = %3
  %8 = tail call noundef zeroext i1 @_ZNK4Json5Value6isBoolEv(ptr noundef nonnull align 8 dereferenceable(40) %1)
  br i1 %8, label %9, label %13

9:                                                ; preds = %7
  %10 = tail call noundef zeroext i1 @_ZNK4Json5Value6asBoolEv(ptr noundef nonnull align 8 dereferenceable(40) %1)
  %11 = select i1 %10, ptr @.str.50, ptr @.str.51
  %12 = tail call noundef nonnull align 8 dereferenceable(32) ptr @_ZNSt7__cxx1112basic_stringIcSt11char_traitsIcESaIcEEaSEPKc(ptr noundef nonnull align 8 dereferenceable(32) %0, ptr noundef nonnull %11)
  br label %18

13:                                               ; preds = %7
  call void @llvm.lifetime.start.p0(i64 8, ptr nonnull %4)
  call void @llvm.lifetime.start.p0(i64 8, ptr nonnull %5)
  store ptr %1, ptr %4, align 8
  store ptr %2, ptr %5, align 8
  %14 = load ptr, ptr getelementptr inbounds (%"class.std::function.0", ptr @_ZN12_GLOBAL__N_120VariableStringHelperB5cxx11E, i64 0, i32 0, i32 1), align 8
  %.not.i.i = icmp eq ptr %14, null
  br i1 %.not.i.i, label %15, label %_ZNKSt8functionIFbRNSt7__cxx1112basic_stringIcSt11char_traitsIcESaIcEEEPKN4Json5ValueEP11cmJSONStateEEclES6_SA_SC_.exit

15:                                               ; preds = %13
  tail call void @_ZSt25__throw_bad_function_callv() #22
  unreachable

_ZNKSt8functionIFbRNSt7__cxx1112basic_stringIcSt11char_traitsIcESaIcEEEPKN4Json5ValueEP11cmJSONStateEEclES6_SA_SC_.exit: ; preds = %13
  %16 = load ptr, ptr getelementptr inbounds (%"class.std::function.0", ptr @_ZN12_GLOBAL__N_120VariableStringHelperB5cxx11E, i64 0, i32 1), align 8
  %17 = call noundef zeroext i1 %16(ptr noundef nonnull align 8 dereferenceable(16) @_ZN12_GLOBAL__N_120VariableStringHelperB5cxx11E, ptr noundef nonnull align 8 dereferenceable(32) %0, ptr noundef nonnull align 8 dereferenceable(8) %4, ptr noundef nonnull align 8 dereferenceable(8) %5)
  call void @llvm.lifetime.end.p0(i64 8, ptr nonnull %4)
  call void @llvm.lifetime.end.p0(i64 8, ptr nonnull %5)
  br label %18

18:                                               ; preds = %_ZNKSt8functionIFbRNSt7__cxx1112basic_stringIcSt11char_traitsIcESaIcEEEPKN4Json5ValueEP11cmJSONStateEEclES6_SA_SC_.exit, %9, %6
  %.0 = phi i1 [ true, %9 ], [ %17, %_ZNKSt8functionIFbRNSt7__cxx1112basic_stringIcSt11char_traitsIcESaIcEEEPKN4Json5ValueEP11cmJSONStateEEclES6_SA_SC_.exit ], [ true, %6 ]
  ret i1 %.0
}